target datalayout = "e-m:e-p270:32:32-p271:32:32-p272:64:64-i64:64-i128:128-f80:128-n8:16:32:64-S128"
target triple = "x86_64-pc-linux-gnu"

%union.pthread_mutex_t = type { %struct.__pthread_mutex_s }
%struct.__pthread_mutex_s = type { i32, i32, i32, i32, i32, i16, i16, %struct.__pthread_internal_list }
%struct.__pthread_internal_list = type { ptr, ptr }
%struct.slurmctld_lock_t = type { i32, i32, i32, i32, i32 }
%struct.assoc_mgr_lock_t = type { i32, i32, i32, i32, i32, i32, i32 }
%struct.persist_msg_t = type { ptr, ptr, i16 }
%struct.dbd_cluster_tres_msg = type { ptr, i64, ptr }

@plugin_type = dso_local constant [28 x i8] c"accounting_storage/slurmdbd\00", align 16
@cluster_nodes = internal global ptr null, align 8
@cluster_tres = internal global ptr null, align 8
@cluster_hl = internal global ptr null, align 8
@total_node_bitmap = internal global ptr null, align 8
@prev_node_record_count = internal global i32 -1, align 4
@cluster_hl_mutex = internal global %union.pthread_mutex_t zeroinitializer, align 8
@.str.70 = private unnamed_addr constant [29 x i8] c"%s: pthread_mutex_lock(): %m\00", align 1
@.str.71 = private unnamed_addr constant [31 x i8] c"%s: pthread_mutex_unlock(): %m\00", align 1
@__const.clusteracct_storage_p_cluster_tres.node_write_lock = private unnamed_addr constant %struct.slurmctld_lock_t { i32 0, i32 0, i32 2, i32 2, i32 0 }, align 4
@node_record_count = dso_local global i32 0, align 4
@assoc_mgr_tres_list = dso_local global ptr null, align 8
@__const._update_cluster_nodes.locks = private unnamed_addr constant %struct.assoc_mgr_lock_t { i32 0, i32 0, i32 0, i32 0, i32 1, i32 0, i32 0 }, align 4
@__func__._update_cluster_nodes = private unnamed_addr constant [22 x i8] c"_update_cluster_nodes\00", align 1
@.str.91 = private unnamed_addr constant [1 x i8] zeroinitializer, align 1
@.str.92 = private unnamed_addr constant [38 x i8] c"%s: %s: Sending tres '%s' for cluster\00", align 1
@__func__._send_cluster_tres = private unnamed_addr constant [19 x i8] c"_send_cluster_tres\00", align 1

; Function Attrs: nounwind uwtable
define internal i32 @_send_cluster_tres(ptr noundef %0, ptr noundef %1, ptr noundef %2, i64 noundef %3, i16 noundef zeroext %4) #0 {
  %6 = alloca i32, align 4
  %7 = alloca ptr, align 8
  %8 = alloca ptr, align 8
  %9 = alloca ptr, align 8
  %10 = alloca i64, align 8
  %11 = alloca i16, align 2
  %12 = alloca %struct.persist_msg_t, align 8
  %13 = alloca %struct.dbd_cluster_tres_msg, align 8
  %14 = alloca i32, align 4
  %15 = alloca i32, align 4
  store ptr %0, ptr %7, align 8
  store ptr %1, ptr %8, align 8
  store ptr %2, ptr %9, align 8
  store i64 %3, ptr %10, align 8
  store i16 %4, ptr %11, align 2
  call void @llvm.lifetime.start.p0(i64 24, ptr %12) #9
  call void @llvm.memset.p0.i64(ptr align 8 %12, i8 0, i64 24, i1 false)
  call void @llvm.lifetime.start.p0(i64 24, ptr %13) #9
  call void @llvm.lifetime.start.p0(i64 4, ptr %14) #9
  store i32 -1, ptr %14, align 4
  %16 = load ptr, ptr %9, align 8
  %17 = icmp ne ptr %16, null
  br i1 %17, label %20, label %18

18:                                               ; preds = %5
  %19 = load i32, ptr %14, align 4
  store i32 %19, ptr %6, align 4
  store i32 1, ptr %15, align 4
  br label %44

20:                                               ; preds = %5
  br label %21

21:                                               ; preds = %20
  br label %22

22:                                               ; preds = %21
  %23 = call i32 @slurm_get_log_level()
  %24 = icmp sge i32 %23, 6
  br i1 %24, label %25, label %27

25:                                               ; preds = %22
  %26 = load ptr, ptr %9, align 8
  call void (i32, ptr, ...) @slurm_log_var(i32 noundef 6, ptr noundef @.str.92, ptr noundef @plugin_type, ptr noundef @__func__._send_cluster_tres, ptr noundef %26)
  br label %27

27:                                               ; preds = %25, %22
  br label %28

28:                                               ; preds = %27
  br label %29

29:                                               ; preds = %28
  br label %30

30:                                               ; preds = %29
  br label %31

31:                                               ; preds = %30
  call void @llvm.memset.p0.i64(ptr align 8 %13, i8 0, i64 24, i1 false)
  %32 = load ptr, ptr %8, align 8
  %33 = getelementptr inbounds nuw %struct.dbd_cluster_tres_msg, ptr %13, i32 0, i32 0
  store ptr %32, ptr %33, align 8
  %34 = load i64, ptr %10, align 8
  %35 = getelementptr inbounds nuw %struct.dbd_cluster_tres_msg, ptr %13, i32 0, i32 1
  store i64 %34, ptr %35, align 8
  %36 = load ptr, ptr %9, align 8
  %37 = getelementptr inbounds nuw %struct.dbd_cluster_tres_msg, ptr %13, i32 0, i32 2
  store ptr %36, ptr %37, align 8
  %38 = getelementptr inbounds nuw %struct.persist_msg_t, ptr %12, i32 0, i32 2
  store i16 1407, ptr %38, align 8
  %39 = load ptr, ptr %7, align 8
  %40 = getelementptr inbounds nuw %struct.persist_msg_t, ptr %12, i32 0, i32 0
  store ptr %39, ptr %40, align 8
  %41 = getelementptr inbounds nuw %struct.persist_msg_t, ptr %12, i32 0, i32 1
  store ptr %13, ptr %41, align 8
  %42 = call i32 @dbd_conn_send_recv_rc_msg(i16 noundef zeroext 11008, ptr noundef %12, ptr noundef %14)
  %43 = load i32, ptr %14, align 4
  store i32 %43, ptr %6, align 4
  store i32 1, ptr %15, align 4
  br label %44

44:                                               ; preds = %31, %18
  call void @llvm.lifetime.end.p0(i64 4, ptr %14) #9
  call void @llvm.lifetime.end.p0(i64 24, ptr %13) #9
  call void @llvm.lifetime.end.p0(i64 24, ptr %12) #9
  %45 = load i32, ptr %6, align 4
  ret i32 %45
}

; Function Attrs: nounwind uwtable
define internal void @_update_cluster_nodes() #0 {
  %1 = alloca %struct.assoc_mgr_lock_t, align 4
  %2 = alloca i32, align 4
  %3 = alloca i32, align 4
  call void @llvm.lifetime.start.p0(i64 28, ptr %1) #9
  call void @llvm.memcpy.p0.p0.i64(ptr align 4 %1, ptr align 4 @__const._update_cluster_nodes.locks, i64 28, i1 false)
  call void @slurm_xfree(ptr noundef @cluster_nodes)
  %4 = load i32, ptr @prev_node_record_count, align 4
  %5 = load i32, ptr @node_record_count, align 4
  %6 = icmp ne i32 %4, %5
  br i1 %6, label %7, label %20

7:                                                ; preds = %0
  br label %8

8:                                                ; preds = %7
  %9 = load ptr, ptr @total_node_bitmap, align 8
  %10 = icmp ne ptr %9, null
  br i1 %10, label %11, label %12

11:                                               ; preds = %8
  call void @slurm_bit_free(ptr noundef @total_node_bitmap)
  br label %12

12:                                               ; preds = %11, %8
  store ptr null, ptr @total_node_bitmap, align 8
  br label %13

13:                                               ; preds = %12
  br label %14

14:                                               ; preds = %13
  %15 = load i32, ptr @node_record_count, align 4
  %16 = sext i32 %15 to i64
  %17 = call ptr @slurm_bit_alloc(i64 noundef %16)
  store ptr %17, ptr @total_node_bitmap, align 8
  %18 = load ptr, ptr @total_node_bitmap, align 8
  call void @slurm_bit_set_all(ptr noundef %18)
  %19 = load i32, ptr @node_record_count, align 4
  store i32 %19, ptr @prev_node_record_count, align 4
  br label %20

20:                                               ; preds = %14, %0
  br label %21

21:                                               ; preds = %20
  call void @llvm.lifetime.start.p0(i64 4, ptr %2) #9
  %22 = call i32 @pthread_mutex_lock(ptr noundef @cluster_hl_mutex) #9
  store i32 %22, ptr %2, align 4
  %23 = load i32, ptr %2, align 4
  %24 = icmp ne i32 %23, 0
  br i1 %24, label %25, label %28

25:                                               ; preds = %21
  %26 = load i32, ptr %2, align 4
  %27 = call ptr @__errno_location() #10
  store i32 %26, ptr %27, align 4
  call void (ptr, ...) @slurm_fatal_abort(ptr noundef @.str.70, ptr noundef @__func__._update_cluster_nodes) #8
  unreachable

28:                                               ; preds = %21
  call void @llvm.lifetime.end.p0(i64 4, ptr %2) #9
  br label %29

29:                                               ; preds = %28
  br label %30

30:                                               ; preds = %29
  br label %31

31:                                               ; preds = %30
  %32 = load ptr, ptr @cluster_hl, align 8
  %33 = icmp ne ptr %32, null
  br i1 %33, label %34, label %36

34:                                               ; preds = %31
  %35 = load ptr, ptr @cluster_hl, align 8
  call void @slurm_hostlist_destroy(ptr noundef %35)
  br label %36

36:                                               ; preds = %34, %31
  store ptr null, ptr @cluster_hl, align 8
  br label %37

37:                                               ; preds = %36
  br label %38

38:                                               ; preds = %37
  %39 = load ptr, ptr @total_node_bitmap, align 8
  %40 = call ptr @bitmap2hostlist(ptr noundef %39)
  store ptr %40, ptr @cluster_hl, align 8
  %41 = load ptr, ptr @cluster_hl, align 8
  %42 = icmp eq ptr %41, null
  br i1 %42, label %43, label %45

43:                                               ; preds = %38
  %44 = call ptr @slurm_xstrdup(ptr noundef @.str.91)
  store ptr %44, ptr @cluster_nodes, align 8
  br label %49

45:                                               ; preds = %38
  %46 = load ptr, ptr @cluster_hl, align 8
  call void @slurm_hostlist_sort(ptr noundef %46)
  %47 = load ptr, ptr @cluster_hl, align 8
  %48 = call ptr @slurm_hostlist_ranged_string_xmalloc(ptr noundef %47)
  store ptr %48, ptr @cluster_nodes, align 8
  br label %49

49:                                               ; preds = %45, %43
  call void @assoc_mgr_lock(ptr noundef %1)
  call void @slurm_xfree(ptr noundef @cluster_tres)
  %50 = load ptr, ptr @assoc_mgr_tres_list, align 8
  %51 = call ptr @slurmdb_make_tres_string(ptr noundef %50, i32 noundef 16)
  store ptr %51, ptr @cluster_tres, align 8
  call void @assoc_mgr_unlock(ptr noundef %1)
  br label %52

52:                                               ; preds = %49
  call void @llvm.lifetime.start.p0(i64 4, ptr %3) #9
  %53 = call i32 @pthread_mutex_unlock(ptr noundef @cluster_hl_mutex) #9
  store i32 %53, ptr %3, align 4
  %54 = load i32, ptr %3, align 4
  %55 = icmp ne i32 %54, 0
  br i1 %55, label %56, label %59

56:                                               ; preds = %52
  %57 = load i32, ptr %3, align 4
  %58 = call ptr @__errno_location() #10
  store i32 %57, ptr %58, align 4
  call void (ptr, ...) @slurm_fatal_abort(ptr noundef @.str.71, ptr noundef @__func__._update_cluster_nodes) #8
  unreachable

59:                                               ; preds = %52
  call void @llvm.lifetime.end.p0(i64 4, ptr %3) #9
  br label %60

60:                                               ; preds = %59
  br label %61

61:                                               ; preds = %60
  call void @llvm.lifetime.end.p0(i64 28, ptr %1) #9
  ret void
}

; Function Attrs: nounwind uwtable
define dso_local i32 @clusteracct_storage_p_cluster_tres(ptr noundef %0, ptr noundef %1, ptr noundef %2, i64 noundef %3, i16 noundef zeroext %4) #0 {
  %6 = alloca ptr, align 8
  %7 = alloca ptr, align 8
  %8 = alloca ptr, align 8
  %9 = alloca i64, align 8
  %10 = alloca i16, align 2
  %11 = alloca ptr, align 8
  %12 = alloca ptr, align 8
  %13 = alloca i32, align 4
  %14 = alloca %struct.slurmctld_lock_t, align 8
  store ptr %0, ptr %6, align 8
  store ptr %1, ptr %7, align 8
  store ptr %2, ptr %8, align 8
  store i64 %3, ptr %9, align 8
  store i16 %4, ptr %10, align 2
  call void @llvm.lifetime.start.p0(i64 8, ptr %11) #9
  call void @llvm.lifetime.start.p0(i64 8, ptr %12) #9
  call void @llvm.lifetime.start.p0(i64 4, ptr %13) #9
  store i32 -1, ptr %13, align 4
  call void @llvm.lifetime.start.p0(i64 20, ptr %14) #9
  call void @llvm.memcpy.p0.p0.i64(ptr align 4 %14, ptr align 4 @__const.clusteracct_storage_p_cluster_tres.node_write_lock, i64 20, i1 false)
  call void @lock_slurmctld(ptr noundef byval(%struct.slurmctld_lock_t) align 8 %14)
  call void @_update_cluster_nodes()
  %15 = load ptr, ptr @cluster_nodes, align 8
  %16 = call ptr @slurm_xstrdup(ptr noundef %15)
  store ptr %16, ptr %11, align 8
  %17 = load ptr, ptr @cluster_tres, align 8
  %18 = call ptr @slurm_xstrdup(ptr noundef %17)
  store ptr %18, ptr %12, align 8
  call void @unlock_slurmctld(ptr noundef byval(%struct.slurmctld_lock_t) align 8 %14)
  %19 = call i64 @time(ptr noundef null) #9
  store i64 %19, ptr %9, align 8
  %20 = load ptr, ptr %6, align 8
  %21 = load ptr, ptr %11, align 8
  %22 = load ptr, ptr %12, align 8
  %23 = load i64, ptr %9, align 8
  %24 = load i16, ptr %10, align 2
  %25 = call i32 @_send_cluster_tres(ptr noundef %20, ptr noundef %21, ptr noundef %22, i64 noundef %23, i16 noundef zeroext %24)
  store i32 %25, ptr %13, align 4
  call void @slurm_xfree(ptr noundef %11)
  call void @slurm_xfree(ptr noundef %12)
  %26 = load i32, ptr %13, align 4
  %27 = icmp eq i32 %26, 10002
  br i1 %27, label %34, label %28

28:                                               ; preds = %5
  %29 = load i32, ptr %13, align 4
  %30 = icmp eq i32 %29, 10005
  br i1 %30, label %34, label %31

31:                                               ; preds = %28
  %32 = load i32, ptr %13, align 4
  %33 = icmp eq i32 %32, 10004
  br i1 %33, label %34, label %38

34:                                               ; preds = %31, %28, %5
  %35 = load ptr, ptr %6, align 8
  %36 = load i64, ptr %9, align 8
  %37 = load i32, ptr %13, align 4
  call void @acct_storage_p_send_all(ptr noundef %35, i64 noundef %36, i32 noundef %37)
  store i32 0, ptr %13, align 4
  br label %38

38:                                               ; preds = %34, %31
  %39 = load i32, ptr %13, align 4
  call void @llvm.lifetime.end.p0(i64 20, ptr %14) #9
  call void @llvm.lifetime.end.p0(i64 4, ptr %13) #9
  call void @llvm.lifetime.end.p0(i64 8, ptr %12) #9
  call void @llvm.lifetime.end.p0(i64 8, ptr %11) #9
  ret i32 %39
}