; Function Attrs: nounwind uwtable
define dso_local range(i32 10006, 10004) i32 @clusteracct_storage_p_cluster_tres(ptr noundef %0, ptr noundef readnone captures(none) %1, ptr noundef readnone captures(none) %2, i64 noundef %3, i16 noundef zeroext %4) local_unnamed_addr #0 {
  %6 = alloca %struct.persist_msg_t, align 8
  %7 = alloca %struct.dbd_cluster_tres_msg, align 8
  %8 = alloca i32, align 4
  %9 = alloca %struct.assoc_mgr_lock_t, align 4
  %10 = alloca ptr, align 8
  %11 = alloca ptr, align 8
  call void @llvm.lifetime.start.p0(i64 8, ptr nonnull %10) #11
  call void @llvm.lifetime.start.p0(i64 8, ptr nonnull %11) #11
  tail call void @lock_slurmctld(ptr noundef nonnull byval(%struct.slurmctld_lock_t) align 8 @__const.clusteracct_storage_p_cluster_tres.node_write_lock) #11
  call void @llvm.lifetime.start.p0(i64 28, ptr nonnull %9) #11
  call void @llvm.memcpy.p0.p0.i64(ptr noundef nonnull align 4 dereferenceable(28) %9, ptr noundef nonnull align 4 dereferenceable(28) @__const._update_cluster_nodes.locks, i64 28, i1 false)
  tail call void @slurm_xfree(ptr noundef nonnull @cluster_nodes) #11
  %12 = load i32, ptr @prev_node_record_count, align 4
  %13 = load i32, ptr @node_record_count, align 4
  %.not.i = icmp eq i32 %12, %13
  br i1 %.not.i, label %22, label %14

14:                                               ; preds = %5
  %15 = load ptr, ptr @total_node_bitmap, align 8
  %.not7.i = icmp eq ptr %15, null
  br i1 %.not7.i, label %17, label %16

16:                                               ; preds = %14
  tail call void @slurm_bit_free(ptr noundef nonnull @total_node_bitmap) #11
  %.pre.i = load i32, ptr @node_record_count, align 4
  br label %17

17:                                               ; preds = %16, %14
  %18 = phi i32 [ %.pre.i, %16 ], [ %13, %14 ]
  store ptr null, ptr @total_node_bitmap, align 8
  %19 = sext i32 %18 to i64
  %20 = tail call ptr @slurm_bit_alloc(i64 noundef %19) #11
  store ptr %20, ptr @total_node_bitmap, align 8
  tail call void @slurm_bit_set_all(ptr noundef %20) #11
  %21 = load i32, ptr @node_record_count, align 4
  store i32 %21, ptr @prev_node_record_count, align 4
  br label %22

22:                                               ; preds = %17, %5
  %23 = tail call i32 @pthread_mutex_lock(ptr noundef nonnull @cluster_hl_mutex) #11
  %.not8.i = icmp eq i32 %23, 0
  br i1 %.not8.i, label %26, label %24

24:                                               ; preds = %22
  %25 = tail call ptr @__errno_location() #12
  store i32 %23, ptr %25, align 4
  tail call void (ptr, ...) @slurm_fatal_abort(ptr noundef nonnull @.str.70, ptr noundef nonnull @__func__._update_cluster_nodes) #10
  unreachable

26:                                               ; preds = %22
  %27 = load ptr, ptr @cluster_hl, align 8
  %.not9.i = icmp eq ptr %27, null
  br i1 %.not9.i, label %29, label %28

28:                                               ; preds = %26
  tail call void @slurm_hostlist_destroy(ptr noundef nonnull %27) #11
  br label %29

29:                                               ; preds = %28, %26
  store ptr null, ptr @cluster_hl, align 8
  %30 = load ptr, ptr @total_node_bitmap, align 8
  %31 = tail call ptr @bitmap2hostlist(ptr noundef %30) #11
  store ptr %31, ptr @cluster_hl, align 8
  %32 = icmp eq ptr %31, null
  br i1 %32, label %33, label %35

33:                                               ; preds = %29
  %34 = tail call ptr @slurm_xstrdup(ptr noundef nonnull @.str.91) #11
  br label %38

35:                                               ; preds = %29
  tail call void @slurm_hostlist_sort(ptr noundef nonnull %31) #11
  %36 = load ptr, ptr @cluster_hl, align 8
  %37 = tail call ptr @slurm_hostlist_ranged_string_xmalloc(ptr noundef %36) #11
  br label %38

38:                                               ; preds = %35, %33
  %storemerge.i = phi ptr [ %37, %35 ], [ %34, %33 ]
  store ptr %storemerge.i, ptr @cluster_nodes, align 8
  call void @assoc_mgr_lock(ptr noundef nonnull %9) #11
  call void @slurm_xfree(ptr noundef nonnull @cluster_tres) #11
  %39 = load ptr, ptr @assoc_mgr_tres_list, align 8
  %40 = call ptr @slurmdb_make_tres_string(ptr noundef %39, i32 noundef 16) #11
  store ptr %40, ptr @cluster_tres, align 8
  call void @assoc_mgr_unlock(ptr noundef nonnull %9) #11
  %41 = call i32 @pthread_mutex_unlock(ptr noundef nonnull @cluster_hl_mutex) #11
  %.not10.i = icmp eq i32 %41, 0
  br i1 %.not10.i, label %_update_cluster_nodes.exit, label %42

42:                                               ; preds = %38
  %43 = tail call ptr @__errno_location() #12
  store i32 %41, ptr %43, align 4
  call void (ptr, ...) @slurm_fatal_abort(ptr noundef nonnull @.str.71, ptr noundef nonnull @__func__._update_cluster_nodes) #10
  unreachable

_update_cluster_nodes.exit:                       ; preds = %38
  call void @llvm.lifetime.end.p0(i64 28, ptr nonnull %9) #11
  %44 = load ptr, ptr @cluster_nodes, align 8
  %45 = call ptr @slurm_xstrdup(ptr noundef %44) #11
  store ptr %45, ptr %10, align 8
  %46 = load ptr, ptr @cluster_tres, align 8
  %47 = call ptr @slurm_xstrdup(ptr noundef %46) #11
  store ptr %47, ptr %11, align 8
  call void @unlock_slurmctld(ptr noundef nonnull byval(%struct.slurmctld_lock_t) align 8 @__const.clusteracct_storage_p_cluster_tres.node_write_lock) #11
  %48 = call i64 @time(ptr noundef null) #11
  call void @llvm.lifetime.start.p0(i64 24, ptr nonnull %6) #11
  %49 = getelementptr inbounds nuw i8, ptr %6, i64 16
  store i64 1407, ptr %49, align 8
  call void @llvm.lifetime.start.p0(i64 24, ptr nonnull %7) #11
  call void @llvm.lifetime.start.p0(i64 4, ptr nonnull %8) #11
  store i32 -1, ptr %8, align 4
  %.not.i13 = icmp eq ptr %47, null
  br i1 %.not.i13, label %_send_cluster_tres.exit.thread, label %50

_send_cluster_tres.exit.thread:                   ; preds = %_update_cluster_nodes.exit
  call void @llvm.lifetime.end.p0(i64 4, ptr nonnull %8) #11
  call void @llvm.lifetime.end.p0(i64 24, ptr nonnull %7) #11
  call void @llvm.lifetime.end.p0(i64 24, ptr nonnull %6) #11
  call void @slurm_xfree(ptr noundef nonnull %10) #11
  call void @slurm_xfree(ptr noundef nonnull %11) #11
  br label %60

50:                                               ; preds = %_update_cluster_nodes.exit
  %51 = call i32 @slurm_get_log_level() #11
  %52 = icmp sgt i32 %51, 5
  br i1 %52, label %53, label %_send_cluster_tres.exit

53:                                               ; preds = %50
  call void (i32, ptr, ...) @slurm_log_var(i32 noundef 6, ptr noundef nonnull @.str.92, ptr noundef nonnull @plugin_type, ptr noundef nonnull @__func__._send_cluster_tres, ptr noundef nonnull %47) #11
  br label %_send_cluster_tres.exit

_send_cluster_tres.exit:                          ; preds = %50, %53
  store ptr %45, ptr %7, align 8
  %54 = getelementptr inbounds nuw i8, ptr %7, i64 8
  store i64 %48, ptr %54, align 8
  %55 = getelementptr inbounds nuw i8, ptr %7, i64 16
  store ptr %47, ptr %55, align 8
  store ptr %0, ptr %6, align 8
  %56 = getelementptr inbounds nuw i8, ptr %6, i64 8
  store ptr %7, ptr %56, align 8
  %57 = call i32 @dbd_conn_send_recv_rc_msg(i16 noundef zeroext 11008, ptr noundef nonnull %6, ptr noundef nonnull %8) #11
  %58 = load i32, ptr %8, align 4
  call void @llvm.lifetime.end.p0(i64 4, ptr nonnull %8) #11
  call void @llvm.lifetime.end.p0(i64 24, ptr nonnull %7) #11
  call void @llvm.lifetime.end.p0(i64 24, ptr nonnull %6) #11
  call void @slurm_xfree(ptr noundef nonnull %10) #11
  call void @slurm_xfree(ptr noundef nonnull %11) #11
  switch i32 %58, label %60 [
    i32 10005, label %59
    i32 10004, label %59
    i32 10002, label %59
  ]

59:                                               ; preds = %_send_cluster_tres.exit, %_send_cluster_tres.exit, %_send_cluster_tres.exit
  call void @acct_storage_p_send_all(ptr poison, i64 noundef %48, i32 noundef %58)
  br label %60

60:                                               ; preds = %_send_cluster_tres.exit.thread, %_send_cluster_tres.exit, %59
  %.0 = phi i32 [ 0, %59 ], [ %58, %_send_cluster_tres.exit ], [ -1, %_send_cluster_tres.exit.thread ]
  call void @llvm.lifetime.end.p0(i64 8, ptr nonnull %11) #11
  call void @llvm.lifetime.end.p0(i64 8, ptr nonnull %10) #11
  ret i32 %.0
}